target datalayout = "e-m:e-p270:32:32-p271:32:32-p272:64:64-i64:64-i128:128-f80:128-n8:16:32:64-S128"
target triple = "x86_64-pc-linux-gnu"

%struct.AVFormatContext = type { ptr, ptr, ptr, ptr, ptr, i32, i32, ptr, i32, ptr, i32, ptr, ptr, i64, i64, i64, i32, i32, i32, i64, i64, ptr, i32, i32, ptr, i32, i32, i32, i32, ptr, i64, i32, i32, %struct.AVIOInterruptCB, i32, i32, i32, i32, i64, i32, i32, i32, i32, i32, i32, i32, i32, i32, i32, i32, i32, i64, i32, i32, i32, i32, i32, ptr, ptr, ptr, ptr, i32, ptr, ptr, ptr, ptr, i32, ptr, ptr, i64, ptr, ptr, ptr, i64 }
%struct.AVIOInterruptCB = type { ptr, ptr }
%struct.TeeContext = type { ptr, i32, i32, ptr, i32, ptr }
%struct.TeeSlave = type { ptr, ptr, i32, i32, ptr, ptr, i32 }

; Function Attrs: nounwind uwtable
define internal i32 @tee_write_trailer(ptr noundef %0) #0 {
  %2 = alloca ptr, align 8
  %3 = alloca ptr, align 8
  %4 = alloca i32, align 4
  %5 = alloca i32, align 4
  %6 = alloca i32, align 4
  store ptr %0, ptr %2, align 8, !tbaa !4
  call void @llvm.lifetime.start.p0(i64 8, ptr %3) #8
  %7 = load ptr, ptr %2, align 8, !tbaa !4
  %8 = getelementptr inbounds nuw %struct.AVFormatContext, ptr %7, i32 0, i32 3
  %9 = load ptr, ptr %8, align 8, !tbaa !9
  store ptr %9, ptr %3, align 8, !tbaa !26
  call void @llvm.lifetime.start.p0(i64 4, ptr %4) #8
  store i32 0, ptr %4, align 4, !tbaa !28
  call void @llvm.lifetime.start.p0(i64 4, ptr %5) #8
  call void @llvm.lifetime.start.p0(i64 4, ptr %6) #8
  store i32 0, ptr %6, align 4, !tbaa !28
  br label %10

10:                                               ; preds = %40, %1
  %11 = load i32, ptr %6, align 4, !tbaa !28
  %12 = load ptr, ptr %3, align 8, !tbaa !26
  %13 = getelementptr inbounds nuw %struct.TeeContext, ptr %12, i32 0, i32 1
  %14 = load i32, ptr %13, align 8, !tbaa !39
  %15 = icmp ult i32 %11, %14
  br i1 %15, label %17, label %16

16:                                               ; preds = %10
  call void @llvm.lifetime.end.p0(i64 4, ptr %6) #8
  br label %43

17:                                               ; preds = %10
  %18 = load ptr, ptr %3, align 8, !tbaa !26
  %19 = getelementptr inbounds nuw %struct.TeeContext, ptr %18, i32 0, i32 3
  %20 = load ptr, ptr %19, align 8, !tbaa !36
  %21 = load i32, ptr %6, align 4, !tbaa !28
  %22 = zext i32 %21 to i64
  %23 = getelementptr inbounds nuw %struct.TeeSlave, ptr %20, i64 %22
  %24 = call i32 @close_slave(ptr noundef %23)
  store i32 %24, ptr %5, align 4, !tbaa !28
  %25 = icmp slt i32 %24, 0
  br i1 %25, label %26, label %39

26:                                               ; preds = %17
  %27 = load ptr, ptr %2, align 8, !tbaa !4
  %28 = load i32, ptr %6, align 4, !tbaa !28
  %29 = load i32, ptr %5, align 4, !tbaa !28
  %30 = call i32 @tee_process_slave_failure(ptr noundef %27, i32 noundef %28, i32 noundef %29)
  store i32 %30, ptr %5, align 4, !tbaa !28
  %31 = load i32, ptr %4, align 4, !tbaa !28
  %32 = icmp ne i32 %31, 0
  br i1 %32, label %38, label %33

33:                                               ; preds = %26
  %34 = load i32, ptr %5, align 4, !tbaa !28
  %35 = icmp slt i32 %34, 0
  br i1 %35, label %36, label %38

36:                                               ; preds = %33
  %37 = load i32, ptr %5, align 4, !tbaa !28
  store i32 %37, ptr %4, align 4, !tbaa !28
  br label %38

38:                                               ; preds = %36, %33, %26
  br label %39

39:                                               ; preds = %38, %17
  br label %40

40:                                               ; preds = %39
  %41 = load i32, ptr %6, align 4, !tbaa !28
  %42 = add i32 %41, 1
  store i32 %42, ptr %6, align 4, !tbaa !28
  br label %10, !llvm.loop !71

43:                                               ; preds = %16
  %44 = load ptr, ptr %3, align 8, !tbaa !26
  %45 = getelementptr inbounds nuw %struct.TeeContext, ptr %44, i32 0, i32 3
  call void @av_freep(ptr noundef %45)
  %46 = load i32, ptr %4, align 4, !tbaa !28
  call void @llvm.lifetime.end.p0(i64 4, ptr %5) #8
  call void @llvm.lifetime.end.p0(i64 4, ptr %4) #8
  call void @llvm.lifetime.end.p0(i64 8, ptr %3) #8
  ret i32 %46
}