; Function Attrs: nounwind uwtable
define internal range(i32 -2147483648, 1) i32 @tee_write_trailer(ptr noundef %0) #0 {
  %2 = getelementptr inbounds nuw i8, ptr %0, i64 24
  %3 = load ptr, ptr %2, align 8, !tbaa !4
  %4 = getelementptr inbounds nuw i8, ptr %3, i64 8
  %5 = load i32, ptr %4, align 8, !tbaa !33
  %.not = icmp eq i32 %5, 0
  br i1 %.not, label %._crit_edge, label %.lr.ph

.lr.ph:                                           ; preds = %1
  %6 = getelementptr inbounds nuw i8, ptr %3, i64 16
  br label %8

._crit_edge:                                      ; preds = %18, %1
  %.014.lcssa = phi i32 [ 0, %1 ], [ %.1, %18 ]
  %7 = getelementptr inbounds nuw i8, ptr %3, i64 16
  tail call void @av_freep(ptr noundef nonnull %7) #6
  ret i32 %.014.lcssa

8:                                                ; preds = %.lr.ph, %18
  %indvars.iv = phi i64 [ 0, %.lr.ph ], [ %indvars.iv.next, %18 ]
  %.01417 = phi i32 [ 0, %.lr.ph ], [ %.1, %18 ]
  %9 = load ptr, ptr %6, align 8, !tbaa !30
  %10 = getelementptr inbounds nuw %struct.TeeSlave, ptr %9, i64 %indvars.iv
  %11 = tail call fastcc i32 @close_slave(ptr noundef %10)
  %12 = icmp slt i32 %11, 0
  br i1 %12, label %13, label %18

13:                                               ; preds = %8
  %14 = trunc nuw i64 %indvars.iv to i32
  %15 = tail call fastcc i32 @tee_process_slave_failure(ptr noundef %0, i32 noundef %14, i32 noundef %11)
  %16 = icmp eq i32 %.01417, 0
  %17 = icmp slt i32 %15, 0
  %or.cond = select i1 %16, i1 %17, i1 false
  %spec.select = select i1 %or.cond, i32 %15, i32 %.01417
  br label %18

18:                                               ; preds = %13, %8
  %.1 = phi i32 [ %.01417, %8 ], [ %spec.select, %13 ]
  %indvars.iv.next = add nuw nsw i64 %indvars.iv, 1
  %19 = load i32, ptr %4, align 8, !tbaa !33
  %20 = zext i32 %19 to i64
  %21 = icmp samesign ult i64 %indvars.iv.next, %20
  br i1 %21, label %8, label %._crit_edge, !llvm.loop !111
}